(dp1
S'4377906287869500514'
p2
(lp3
F-2.3614169999999999
aF1.083337
aF-2.3205399999999998
aF-3.1799110000000002
aF-3.3346460000000002
aF-0.43029499999999998
aF-0.207459
aF0.23837
asS'4377906288663800514'
p4
(lp5
F2.1597529999999998
aF-1.3892340000000001
aF-3.8546870000000002
aF0.64004499999999998
aF-0.32121499999999997
aF0.56649700000000003
aF-0.92943100000000001
aF1.489805
asS'4377906284514600514'
p6
(lp7
F0.74627299999999996
aF2.9037850000000001
aF-0.80079199999999995
aF-1.0164249999999999
aF0.67787900000000001
aF-1.510508
aF4.0784979999999997
aF0.88538099999999997
asS'4377906288893600514'
p8
(lp9
F0.189529
aF3.109826
aF0.040760999999999999
aF-2.0909939999999998
aF-1.6233690000000001
aF-3.1417269999999999
aF-1.6844950000000001
aF0.32711200000000001
asS'4377906280784800514'
p10
(lp11
F0.63459299999999996
aF1.7060580000000001
aF-0.74922599999999995
aF-2.0992690000000001
aF-0.064676999999999998
aF-0.87218300000000004
aF3.1126100000000001
aF2.894342
asS'4377906289863800514'
p12
(lp13
F0.91235500000000003
aF0.52357500000000001
aF-1.2566079999999999
aF1.5202629999999999
aF1.3269979999999999
aF-3.313574
aF-2.4559319999999998
aF-0.24252399999999999
asS'4377906289525800514'
p14
(lp15
F0.88156999999999996
aF0.83247499999999997
aF-2.729206
aF-2.7599369999999999
aF3.3563179999999999
aF-1.322641
aF1.17713
aF-1.471894
asS'4377906287063800514'
p16
(lp17
F1.254097
aF1.1868570000000001
aF-2.3622800000000002
aF0.17019100000000001
aF1.1747749999999999
aF0.29896400000000001
aF3.9009170000000002
aF1.7993809999999999
asS'4377906283769500514'
p18
(lp19
F1.4028780000000001
aF0.88581900000000002
aF-1.578028
aF1.995949
aF1.997609
aF-4.4055819999999999
aF-3.0773350000000002
aF-0.30784499999999998
asS'9377906286615510514'
p20
(lp21
F-0.017236999999999999
aF2.1389239999999998
aF-3.4396100000000001
aF2.7867829999999998
aF-1.7046410000000001
aF0.099212999999999996
aF1.9743489999999999
aF-0.81144300000000003
asS'4377906289243600514'
p22
(lp23
F0.52453700000000003
aF-0.73210500000000001
aF-4.467117
aF-2.4184969999999999
aF0.96498300000000004
aF0.13673099999999999
aF0.45191199999999998
aF-1.7144219999999999
asS'3377906284395510514'
p24
(lp25
F0.43128100000000003
aF0.51885099999999995
aF-4.3686590000000001
aF0.54303999999999997
aF0.88002599999999997
aF1.655629
aF0.62045700000000004
aF0.75035600000000002
asS'3377906286918510514'
p26
(lp27
F0.436834
aF1.0556319999999999
aF-4.0121390000000003
aF0.27123599999999998
aF1.2455959999999999
aF1.501209
aF1.551993
aF0.40197500000000003
asS'3377906281518510514'
p28
(lp29
F-3.226248
aF0.73118399999999995
aF-2.3519489999999998
aF-2.8437359999999998
aF-2.9704799999999998
aF-1.2579370000000001
aF-0.015032
aF-0.25303199999999998
asS'4377906280913600514'
p30
(lp31
F0.580731
aF-0.97832699999999995
aF-4.6403930000000004
aF-1.544937
aF0.45094200000000001
aF0.89108200000000004
aF-0.14032700000000001
aF-1.052637
asS'4377906286681600514'
p32
(lp33
F0.59202200000000005
aF1.611408
aF-0.61433800000000005
aF0.055673
aF-1.952499
aF-1.1257490000000001
aF-0.050603000000000002
aF4.7401280000000003
asS'4377906284594800514'
p34
(lp35
F1.1617090000000001
aF3.4518059999999999
aF-0.111599
aF-1.034041
aF-0.57688899999999999
aF-2.317269
aF3.5101520000000002
aF0.61093200000000003
asS'4377906288738500514'
p36
(lp37
F-0.15335499999999999
aF1.689252
aF-4.4218630000000001
aF0.14943999999999999
aF1.9430000000000001
aF1.646156
aF0.77279900000000001
aF0.086024000000000003
asS'4377906287425800514'
p38
(lp39
F-0.72154300000000005
aF1.047067
aF-3.373383
aF-3.0268950000000001
aF-2.2813639999999999
aF0.71857899999999997
aF-0.22908899999999999
aF1.905397
asS'9377906288175510514'
p40
(lp41
F0.50617299999999998
aF-0.90590099999999996
aF-3.7549139999999999
aF-3.183808
aF-0.79820500000000005
aF-1.576152
aF0.33294800000000002
aF-2.4191400000000001
asS'4377906285594800514'
p42
(lp43
F1.53471
aF3.5173800000000002
aF0.14175099999999999
aF-1.197546
aF-1.6990289999999999
aF-2.6519750000000002
aF2.9665889999999999
aF1.02701
asS'4377906287169500514'
p44
(lp45
F-2.8322370000000001
aF1.005563
aF-1.739506
aF-1.8126530000000001
aF-3.656873
aF-2.2301120000000001
aF-0.52801200000000004
aF-1.3155140000000001
asS'3377906280028510514'
p46
(lp47
F1.835477
aF-0.37769399999999997
aF-3.022821
aF0.94028500000000004
aF0.67392600000000003
aF0.45019199999999998
aF2.1533120000000001
aF2.2145570000000001
asS'3377906289228510514'
p48
(lp49
F3.2276590000000001
aF-0.53874699999999998
aF-2.9140980000000001
aF1.3559840000000001
aF-2.2878790000000002
aF-1.5206120000000001
aF-1.5825020000000001
aF1.5754010000000001
asS'3377906289674510514'
p50
(lp51
F0.24854100000000001
aF0.57738800000000001
aF-5.0067089999999999
aF-0.15497
aF0.88689899999999999
aF1.6096440000000001
aF0.63097300000000001
aF-0.27000000000000002
asS'4377906287243600514'
p52
(lp53
F0.46298899999999998
aF0.89679200000000003
aF-4.6658569999999999
aF-0.66552800000000001
aF1.6884650000000001
aF1.3805620000000001
aF1.1692
aF-0.181587
asS'4377906285525800514'
p54
(lp55
F-4.3558009999999996
aF0.25807400000000003
aF-1.198045
aF-1.701813
aF0.350748
aF-2.0623149999999999
aF0.928427
aF0.90304399999999996
asS'4377906284769500514'
p56
(lp57
F2.4250630000000002
aF1.4107499999999999
aF-1.0737449999999999
aF0.78266500000000006
aF1.723563
aF-3.669165
aF-2.09782
aF-0.59624299999999997
asS'4377906280344800514'
p58
(lp59
F0.29389900000000002
aF-0.79140100000000002
aF-4.0265620000000002
aF-2.6456339999999998
aF0.119965
aF-0.444828
aF0.25236700000000001
aF-2.1489829999999999
asS'4377906281969500514'
p60
(lp61
F-4.0544000000000002
aF0.38019599999999998
aF-1.5951850000000001
aF0.73486799999999997
aF0.348883
aF-1.668196
aF1.450296
aF1.6063289999999999
asS'3377906285934510514'
p62
(lp63
F-0.33079999999999998
aF1.4313880000000001
aF-4.5963750000000001
aF1.1939869999999999
aF0.42504599999999998
aF1.716191
aF0.57262000000000002
aF-0.262436
asS'4377906281784800514'
p64
(lp65
F0.84072899999999995
aF1.8224590000000001
aF-0.52814799999999995
aF-2.1326589999999999
aF-1.072921
aF-0.804786
aF2.6004559999999999
aF3.3877359999999999
asS'3377906289434510514'
p66
(lp67
F0.67397799999999997
aF2.5207350000000002
aF-0.61110500000000001
aF2.9100069999999998
aF1.6092040000000001
aF-3.723058
aF-0.768146
aF-0.090804999999999997
asS'4377906282759500514'
p68
(lp69
F2.1481659999999998
aF-0.29584500000000002
aF-1.9060980000000001
aF-2.5514450000000002
aF-1.1807540000000001
aF-3.296497
aF1.2754840000000001
aF-1.8560950000000001
asS'4377906288421600514'
p70
(lp71
F1.335286
aF2.215598
aF-0.54609600000000003
aF-0.91231099999999998
aF-2.5927479999999998
aF-1.175114
aF1.069785
aF3.328074
asS'4377906289425800514'
p72
(lp73
F-0.27223999999999998
aF-1.292521
aF-0.64917499999999995
aF-1.2199869999999999
aF-1.7523850000000001
aF-4.3054370000000004
aF1.871678
aF1.6633370000000001
asS'4377906285032600514'
p74
(lp75
F0.889131
aF-0.70130400000000004
aF-2.0577230000000002
aF-3.5091420000000002
aF0.25568800000000003
aF-2.0842580000000002
aF-2.0993810000000002
aF2.8189440000000001
asS'4377906282653600514'
p76
(lp77
F1.166193
aF-2.6973660000000002
aF-3.4357060000000001
aF-1.6910540000000001
aF0.82098599999999999
aF-3.4211100000000001
aF-2.4720230000000001
aF1.8610850000000001
asS'4377906288234600514'
p78
(lp79
F0.95583899999999999
aF-0.93551799999999996
aF-2.35432
aF-3.8272330000000001
aF0.39062999999999998
aF-2.3154020000000002
aF-2.1560649999999999
aF3.082681
asS'4377906284422600514'
p80
(lp81
F0.490504
aF3.7334529999999999
aF-0.37175799999999998
aF2.3970910000000001
aF1.651152
aF-3.4334069999999999
aF0.34185199999999999
aF-0.096174999999999997
asS'4377906288593600514'
p82
(lp83
F0.68312200000000001
aF2.249539
aF-0.99220799999999998
aF-1.4292849999999999
aF0.89961899999999995
aF-1.11826
aF3.9771869999999998
aF1.8768629999999999
asS'4377906282541600514'
p84
(lp85
F1.3011159999999999
aF0.80553600000000003
aF-3.1298300000000001
aF0.78647599999999995
aF0.93808000000000002
aF0.689307
aF3.497779
aF1.672701
asS'4377906283959500514'
p86
(lp87
F-2.7705899999999999
aF3.3957579999999998
aF-2.0104060000000001
aF1.7577670000000001
aF2.6106579999999999
aF-0.81239300000000003
aF0.24224000000000001
aF1.8733310000000001
asS'3377906288228510514'
p88
(lp89
F2.8867129999999999
aF-0.71195900000000001
aF-3.3358120000000002
aF1.1743319999999999
aF-1.618126
aF-0.60775699999999999
aF-1.363729
aF1.6838439999999999
asS'4377906280334600514'
p90
(lp91
F-1.124366
aF-2.6446149999999999
aF-1.6718420000000001
aF-0.001766
aF-1.8963859999999999
aF-4.6079699999999999
aF0.57938100000000003
aF2.6557460000000002
asS'9377906283125510514'
p92
(lp93
F0.90096799999999999
aF0.94184299999999999
aF-2.0827110000000002
aF1.147089
aF1.7342329999999999
aF-3.4858980000000002
aF-3.9756999999999998
aF-0.56187100000000001
asS'4377906282141600514'
p94
(lp95
F-2.9615680000000002
aF2.0877829999999999
aF-3.2087289999999999
aF2.9039429999999999
aF-1.6928179999999999
aF-0.41954399999999997
aF0.78590599999999999
aF0.53913999999999995
asS'4377906288425800514'
p96
(lp97
F-0.92611299999999996
aF1.3346450000000001
aF-3.5944590000000001
aF-3.5804309999999999
aF-2.9441350000000002
aF0.79147800000000001
aF-0.47438200000000003
aF1.91835
asS'4377906281234600514'
p98
(lp99
F-0.55715499999999996
aF-2.074497
aF-0.95157099999999994
aF-0.92344899999999996
aF-1.9453990000000001
aF-4.5424259999999999
aF1.5258449999999999
aF2.1166
asS'3377906282418510514'
p100
(lp101
F1.401078
aF2.2498999999999998
aF-0.69486300000000001
aF-1.626725
aF-2.1754600000000002
aF-1.115243
aF2.0547979999999999
aF4.1688099999999997
asS'4377906281241600514'
p102
(lp103
F-2.2378070000000001
aF-0.135964
aF-0.21137600000000001
aF1.8822460000000001
aF0.64592000000000005
aF-4.3302579999999997
aF-1.077553
aF0.45655400000000002
asS'3377906287934510514'
p104
(lp105
F0.51311200000000001
aF1.2366220000000001
aF-3.9882080000000002
aF0.43961800000000001
aF0.86805500000000002
aF1.3149580000000001
aF1.9879309999999999
aF0.15729299999999999
asS'4377906282532600514'
p106
(lp107
F1.9576150000000001
aF0.34636400000000001
aF-1.9860800000000001
aF-2.4576899999999999
aF1.611561
aF-2.246588
aF1.6042050000000001
aF-1.750696
asS'4377906287141600514'
p108
(lp109
F-3.9282029999999999
aF0.72443500000000005
aF-0.55883799999999995
aF0.41587400000000002
aF-0.110539
aF-3.8586049999999998
aF-0.26580999999999999
aF-0.34978900000000002
asS'4377906283759500514'
p110
(lp111
F2.3015590000000001
aF-0.14807699999999999
aF-1.8884559999999999
aF-2.5123899999999999
aF-0.55796400000000002
aF-3.2605360000000001
aF1.4858169999999999
aF-1.9440599999999999
asS'4377906280863800514'
p112
(lp113
F0.097929000000000002
aF1.2229380000000001
aF-0.88837299999999997
aF0.46275100000000002
aF-1.424015
aF-1.4680059999999999
aF-0.90739999999999998
aF4.5153379999999999
asS'4377906287863800514'
p114
(lp115
F3.3874059999999999
aF1.9921789999999999
aF-0.82126600000000005
aF0.33351900000000001
aF1.3986639999999999
aF-3.2107199999999998
aF-0.65483599999999997
aF-0.38297100000000001
asS'4377906284525800514'
p116
(lp117
F-0.91332999999999998
aF-2.3992209999999998
aF-1.2752060000000001
aF-0.49573600000000001
aF-2.004372
aF-4.7987419999999998
aF1.0931120000000001
aF2.3999470000000001
asS'4377906288063800514'
p118
(lp119
F0.83857999999999999
aF2.0934219999999999
aF-2.0163389999999999
aF-0.48460799999999998
aF1.277188
aF-0.59769799999999995
aF4.7722230000000003
aF1.8557699999999999
asS'4377906288243600514'
p120
(lp121
F0.41375200000000001
aF0.45810000000000001
aF-3.6611760000000002
aF-1.59843
aF1.7944640000000001
aF0.73292500000000005
aF0.77272600000000002
aF-1.1279859999999999
asS'4377906288194800514'
p122
(lp123
F-1.395764
aF1.7189209999999999
aF-2.9702639999999998
aF-1.0408809999999999
aF0.88301700000000005
aF-2.553369
aF-5.2020580000000001
aF0.30366300000000002
asS'4377906289244800514'
p124
(lp125
F1.5314479999999999
aF0.59437899999999999
aF-2.3528570000000002
aF-2.6865800000000002
aF2.6704029999999999
aF-1.7641530000000001
aF1.367945
aF-1.441875
asS'3377906281774510514'
p126
(lp127
F0.98411899999999997
aF-1.508292
aF-4.3783760000000003
aF-0.69233199999999995
aF0.131636
aF0.78841600000000001
aF-0.54879100000000003
aF-0.15487899999999999
asS'4377906285759500514'
p128
(lp129
F-0.86109500000000005
aF2.6495790000000001
aF-0.54767399999999999
aF-2.8271470000000001
aF-3.3051699999999999
aF-2.089054
aF-1.2284600000000001
aF-0.289767
asS'3377906289044510514'
p130
(lp131
F-0.154997
aF0.77724499999999996
aF-0.553925
aF2.7531050000000001
aF1.3458969999999999
aF-4.4415969999999998
aF-1.67106
aF-0.039801000000000003
asS'4377906282769500514'
p132
(lp133
F3.610401
aF2.669197
aF-1.168701
aF0.57287999999999994
aF1.8719650000000001
aF-4.2863579999999999
aF-1.1336809999999999
aF-0.72185699999999997
asS'4377906280329500514'
p134
(lp135
F1.273177
aF2.1596739999999999
aF-0.88511200000000001
aF-0.93073099999999998
aF-2.8316659999999998
aF-1.5125189999999999
aF0.90902400000000005
aF5.0006519999999997
asS'4377906287959500514'
p136
(lp137
F-0.90927899999999995
aF3.678766
aF-0.12922600000000001
aF1.8032630000000001
aF1.696418
aF-2.8161290000000001
aF0.31704399999999999
aF0.12550800000000001
asS'4377906285041600514'
p138
(lp139
F2.9430640000000001
aF-0.25700299999999998
aF-1.4346140000000001
aF1.0862590000000001
aF-2.6238060000000001
aF-3.6194989999999998
aF-0.928118
aF0.76577899999999999
asS'9377906282776510514'
p140
(lp141
F-0.76524499999999995
aF1.4039649999999999
aF-2.7169780000000001
aF-0.24556800000000001
aF1.0699050000000001
aF-2.4195600000000002
aF-4.8495140000000001
aF-0.033857999999999999
asS'3377906285434510514'
p142
(lp143
F2.664393
aF2.9964580000000001
aF-0.54183300000000001
aF0.86606499999999997
aF1.6040049999999999
aF-3.3399519999999998
aF-0.0064910000000000002
aF-0.46997800000000001
asS'4377906284759500514'
p144
(lp145
F-1.606195
aF1.8615539999999999
aF-1.6350629999999999
aF-2.7882889999999998
aF-3.7061809999999999
aF-1.612209
aF-0.75000599999999995
aF-0.45618799999999998
asS'4377906286041600514'
p146
(lp147
F2.9344359999999998
aF-0.309803
aF-3.3715069999999998
aF1.5238700000000001
aF-1.504327
aF-0.25104100000000001
aF-1.082098
aF1.9017310000000001
asS'9377906284555510514'
p148
(lp149
F3.3563869999999998
aF-0.19783300000000001
aF-2.2359580000000001
aF1.445419
aF-2.8436590000000002
aF-2.950825
aF-1.2904659999999999
aF1.33447
asS'4377906283141600514'
p150
(lp151
F-4.284179
aF1.5943780000000001
aF-2.3439640000000002
aF2.0932840000000001
aF-0.13327
aF-0.67658700000000005
aF1.3964000000000001
aF1.893667
asS'4377906285141600514'
p152
(lp153
F-3.7635719999999999
aF1.349407
aF-0.60356600000000005
aF1.2916380000000001
aF0.56539099999999998
aF-3.0916160000000001
aF0.49466199999999999
aF0.78427400000000003
asS'4377906280163800514'
p154
(lp155
F0.75875800000000004
aF2.5769880000000001
aF-1.862511
aF-0.207204
aF0.85139200000000004
aF-1.005719
aF4.4115970000000004
aF1.0355179999999999
asS'4377906289869500514'
p156
(lp157
F-4.4435589999999996
aF0.024729999999999999
aF-1.775954
aF-0.89105599999999996
aF0.36887900000000001
aF-1.7524059999999999
aF1.2319819999999999
aF1.5450950000000001
asS'4377906285681600514'
p158
(lp159
F0.387905
aF1.571869
aF-1.12591
aF0.24007500000000001
aF-1.9451890000000001
aF-1.8302929999999999
aF-0.91459800000000002
aF5.4862510000000002
asS'4377906288959500514'
p160
(lp161
F-2.2949320000000002
aF3.8387720000000001
aF-0.31853999999999999
aF1.4189970000000001
aF2.0790920000000002
aF-3.151535
aF0.38382699999999997
aF0.39353199999999999
asS'4377906281141600514'
p162
(lp163
F-1.1485380000000001
aF2.7157170000000002
aF-2.7288450000000002
aF-0.455482
aF3.9435929999999999
aF-0.26576
aF0.044939
aF0.32554
asS'4377906283422600514'
p164
(lp165
F1.3790340000000001
aF3.5360100000000001
aF-0.269343
aF1.674742
aF1.682115
aF-3.427359
aF0.13936599999999999
aF-0.27817399999999998
asS'4377906280763800514'
p166
(lp167
F1.8322160000000001
aF-1.1319399999999999
aF-4.2425430000000004
aF1.157284
aF0.76547100000000001
aF0.89765899999999998
aF0.94347199999999998
aF2.2978200000000002
asS'3377906282328510514'
p168
(lp169
F3.33196
aF-0.34398499999999999
aF-2.0628449999999998
aF1.4016709999999999
aF-2.6772819999999999
aF-2.8964729999999999
aF-1.091879
aF1.1689099999999999
asS'4377906289041600514'
p170
(lp171
F-0.99574200000000002
aF2.1629179999999999
aF-4.0302769999999999
aF2.486462
aF-1.0231699999999999
aF0.86122600000000005
aF0.66572299999999995
aF-1.0136689999999999
asS'4377906281763800514'
p172
(lp173
F2.2058740000000001
aF-0.681616
aF-3.6009370000000001
aF1.6165290000000001
aF-0.070013000000000006
aF0.57355699999999998
aF0.34395999999999999
aF2.5122450000000001
asS'4377906286525800514'
p174
(lp175
F-4.1215130000000002
aF0.299294
aF-1.5440609999999999
aF-2.812811
aF-0.18237700000000001
aF-1.330314
aF0.56463300000000005
aF0.86647399999999997
asS'4377906280969500514'
p176
(lp177
F-4.1569830000000003
aF0.46151999999999999
aF-0.94990300000000005
aF0.86961900000000003
aF0.54862999999999995
aF-3.3268450000000001
aF0.49337799999999998
aF1.0413209999999999
asS'4377906283525800514'
p178
(lp179
F0.87345899999999999
aF-1.5152749999999999
aF-2.5515159999999999
aF-2.966313
aF0.47765000000000002
aF-2.581731
aF-2.3277600000000001
aF2.5209519999999999
asS'4377906286032600514'
p180
(lp181
F-0.97094999999999998
aF-2.2797559999999999
aF-1.532902
aF0.14902699999999999
aF-1.668366
aF-3.8891460000000002
aF0.480929
aF2.3206310000000001
asS'4377906284141600514'
p182
(lp183
F-3.4682819999999999
aF1.9455690000000001
aF-2.7407720000000002
aF2.848973
aF-1.4251450000000001
aF-0.34594900000000001
aF1.297134
aF1.108771
asS'4377906287194800514'
p184
(lp185
F-1.7469349999999999
aF1.768815
aF-3.0279310000000002
aF-1.53125
aF0.63433099999999998
aF-2.3294769999999998
aF-5.1389189999999996
aF0.58717900000000001
asS'4377906288869500514'
p186
(lp187
F-1.3600429999999999
aF1.2889649999999999
aF-3.0079020000000001
aF-3.67747
aF-3.2636159999999999
aF0.42350900000000002
aF-0.27523799999999998
aF1.1462079999999999
asS'9377906283776510514'
p188
(lp189
F0.117309
aF1.0899639999999999
aF-2.028206
aF0.70372299999999999
aF1.432634
aF-2.8087110000000002
aF-4.4254110000000004
aF-0.38202700000000001
asS'4377906286843600514'
p190
(lp191
F1.198412
aF-2.5349819999999998
aF-3.064327
aF-1.5955349999999999
aF0.85607500000000003
aF-3.0962550000000002
aF-2.4160349999999999
aF1.6870130000000001
asS'4377906289141600514'
p192
(lp193
F-3.026789
aF0.283607
aF-0.37709399999999998
aF1.1540349999999999
aF0.779196
aF-4.2616839999999998
aF-0.39266899999999999
aF0.31626900000000002
asS'9377906285615510514'
p194
(lp195
F0.78554500000000005
aF2.1306609999999999
aF-3.3791220000000002
aF2.6050059999999999
aF-1.2992710000000001
aF-0.026974999999999999
aF3.0496129999999999
aF-0.45808500000000002
asS'4377906282969500514'
p196
(lp197
F-3.9868999999999999
aF0.78911299999999995
aF-0.42261300000000002
aF-0.30019000000000001
aF0.87750899999999998
aF-3.5623130000000001
aF0.228682
aF0.40505099999999999
asS'3377906284028510514'
p198
(lp199
F-0.61771299999999996
aF2.1857099999999998
aF-3.274845
aF-0.56932000000000005
aF3.8982160000000001
aF0.267544
aF0.066502000000000006
aF-0.23456199999999999
asS'3377906287886510514'
p200
(lp201
F1.040251
aF1.7026619999999999
aF-3.8210470000000001
aF1.4904839999999999
aF0.158331
aF0.67861300000000002
aF3.8825699999999999
aF0.50276699999999996
asS'4377906282763800514'
p202
(lp203
F2.9308640000000001
aF-0.60131100000000004
aF-4.0042580000000001
aF1.554135
aF-0.85861900000000002
aF0.28237699999999999
aF-0.69737700000000002
aF2.5059119999999999
asS'9377906286566510514'
p204
(lp205
F1.9517279999999999
aF-0.40451500000000001
aF-2.291531
aF-2.8030840000000001
aF-0.90547100000000003
aF-3.0118290000000001
aF1.322198
aF-2.3808950000000002
asS'4377906283815800514'
p206
(lp207
F-3.2083200000000001
aF0.67083599999999999
aF-1.504346
aF0.14141500000000001
aF-2.9512109999999998
aF-3.4195009999999999
aF-0.76102599999999998
aF-1.7367589999999999
asS'4377906281041600514'
p208
(lp209
F3.2013630000000002
aF-0.28884199999999999
aF-1.2003870000000001
aF1.0326280000000001
aF-2.7481010000000001
aF-4.5176220000000002
aF-0.665215
aF0.75356900000000004
asS'4377906280815800514'
p210
(lp211
F-1.6810149999999999
aF1.381902
aF-2.4424959999999998
aF-1.561741
aF0.44503999999999999
aF-1.5448010000000001
aF-3.9211040000000001
aF0.67013
asS'9377906289175510514'
p212
(lp213
F0.96766099999999999
aF-0.54489900000000002
aF-2.9863870000000001
aF-2.8397199999999998
aF-0.922211
aF-2.2493669999999999
aF0.72375999999999996
aF-2.3005969999999998
asS'4377906285334600514'
p214
(lp215
F1.6964729999999999
aF3.2807499999999998
aF0.094689999999999996
aF-1.0685519999999999
aF-2.43852
aF-2.4293900000000002
aF2.3607629999999999
aF1.871534
asS'4377906286334600514'
p216
(lp217
F1.656247
aF2.574471
aF-0.390428
aF-1.290133
aF-2.7627480000000002
aF-1.669324
aF1.9681310000000001
aF2.7687490000000001
asS'4377906280234600514'
p218
(lp219
F1.2286520000000001
aF-2.3110680000000001
aF-2.9899040000000001
aF-2.1217060000000001
aF0.68636799999999998
aF-3.119243
aF-2.4981300000000002
aF2.0662720000000001
asS'4377906289663800514'
p220
(lp221
F3.0640459999999998
aF-0.98400399999999999
aF-4.4157310000000001
aF1.262289
aF-1.133097
aF0.061189
aF-1.1052919999999999
aF2.203732
asS'3377906287674510514'
p222
(lp223
F0.58915799999999996
aF0.38711699999999999
aF-4.4894379999999998
aF0.32036399999999998
aF0.99583999999999995
aF1.3717630000000001
aF0.46432699999999999
aF0.39100800000000002
asS'9377906281555510514'
p224
(lp225
F3.3453010000000001
aF-0.17772299999999999
aF-3.0959989999999999
aF1.527922
aF-2.4832730000000001
aF-1.4423699999999999
aF-1.4949479999999999
aF1.6110660000000001
asS'4377906287663800514'
p226
(lp227
F1.690266
aF-1.3590310000000001
aF-4.7201519999999997
aF0.20513899999999999
aF0.402478
aF1.0491539999999999
aF-0.002036
aF1.12235
asS'4377906284653600514'
p228
(lp229
F-0.32158900000000001
aF-1.6129420000000001
aF-0.82545900000000005
aF-1.246216
aF-1.97865
aF-4.9602120000000003
aF1.978885
aF1.9917849999999999
asS'4377906281741600514'
p230
(lp231
F-4.0968359999999997
aF0.57471399999999995
aF-1.8027789999999999
aF-3.0185309999999999
aF-1.40846
aF-1.54918
aF0.20522299999999999
aF0.109124
asS'3377906283328510514'
p232
(lp233
F2.9443600000000001
aF-0.36196
aF-1.3904939999999999
aF1.1715580000000001
aF-2.4120490000000001
aF-3.3575919999999999
aF-0.79733200000000004
aF0.74145000000000005
asS'4377906285343600514'
p234
(lp235
F-0.126584
aF3.4933559999999999
aF-0.108793
aF-2.7281650000000002
aF-2.9889420000000002
aF-3.0882309999999999
aF-1.705319
aF-0.033936000000000001
asS'4377906288041600514'
p236
(lp237
F-1.8561840000000001
aF1.9206160000000001
aF-3.37791
aF2.9158300000000001
aF-1.6938409999999999
aF0.354578
aF0.392735
aF-0.407607
asS'9377906285566510514'
p238
(lp239
F2.3288120000000001
aF-0.047729000000000001
aF-2.2677679999999998
aF-2.986526
aF-0.109502
aF-3.2899949999999998
aF1.5950029999999999
aF-2.0542919999999998
asS'4377906282815800514'
p240
(lp241
F-3.2812670000000002
aF0.62735600000000002
aF-0.74124000000000001
aF0.28427999999999998
aF-1.887014
aF-3.3631069999999998
aF-0.68907200000000002
aF-1.3206180000000001
asS'4377906289063800514'
p242
(lp243
F0.74855000000000005
aF1.931314
aF-2.2899660000000002
aF0.64516099999999998
aF0.420794
aF0.067710000000000006
aF3.930034
aF0.53125199999999995
asS'4377906284959500514'
p244
(lp245
F-3.2776079999999999
aF1.8262750000000001
aF-0.019571000000000002
aF0.83381899999999998
aF1.195665
aF-3.3440599999999998
aF0.16489999999999999
aF0.26168599999999997
asS'4377906286169500514'
p246
(lp247
F-2.603307
aF0.89463599999999999
aF-1.5203059999999999
aF-0.73664799999999997
aF-3.2875049999999999
aF-2.9411900000000002
aF-0.89631700000000003
aF-1.5772440000000001
asS'4377906284838500514'
p248
(lp249
F0.214445
aF1.6678900000000001
aF-2.4882780000000002
aF-1.8392660000000001
aF3.8397890000000001
aF-0.82315099999999997
aF0.56922099999999998
aF-0.81007799999999996
asS'4377906286141600514'
p250
(lp251
F-3.5126249999999999
aF1.6383779999999999
aF-1.230812
aF1.5936360000000001
aF0.62224900000000005
aF-1.5263709999999999
aF0.58987599999999996
aF1.471786
asS'4377906289813600514'
p252
(lp253
F0.72875900000000005
aF0.195303
aF-4.0235979999999998
aF-2.6119940000000001
aF2.0913900000000001
aF-0.068975999999999996
aF1.0794870000000001
aF-1.502437
asS'4377906280241600514'
p254
(lp255
F-1.1923859999999999
aF-0.11407200000000001
aF-0.55266999999999999
aF2.4992869999999998
aF0.99446100000000004
aF-4.6029470000000003
aF-1.465873
aF0.46598499999999998
asS'4377906286343600514'
p256
(lp257
F0.29956100000000002
aF4.02095
aF0.13244300000000001
aF-2.7711800000000002
aF-2.3299979999999998
aF-3.5248029999999999
aF-1.988583
aF0.32524399999999998
asS'4377906281959500514'
p258
(lp259
F-2.1418940000000002
aF3.7985009999999999
aF-1.1041190000000001
aF1.453241
aF2.3211889999999999
aF-1.534727
aF0.216254
aF1.0809310000000001
asS'4377906280141600514'
p260
(lp261
F-2.0651540000000002
aF3.0087489999999999
aF-2.264866
aF0.26570700000000003
aF3.3355090000000001
aF-0.53446300000000002
aF0.021694999999999999
aF1.103602
asS'4377906282959500514'
p262
(lp263
F-3.5463149999999999
aF2.645985
aF-1.7762800000000001
aF2.002602
aF1.357326
aF-0.87978299999999998
aF0.79429799999999995
aF2.0468549999999999
asS'3377906280395510514'
p264
(lp265
F3.0203929999999999
aF-0.37040699999999999
aF-1.204561
aF1.0085170000000001
aF-2.5933459999999999
aF-4.2349769999999998
aF-0.63902700000000001
aF0.72392999999999996
as.